target datalayout = "e-m:e-p270:32:32-p271:32:32-p272:64:64-i64:64-i128:128-f80:128-n8:16:32:64-S128"
target triple = "x86_64-pc-linux-gnu"

%union.pthread_mutex_t = type { %struct.__pthread_mutex_s }
%struct.__pthread_mutex_s = type { i32, i32, i32, i32, i32, i16, i16, %struct.__pthread_internal_list }
%struct.__pthread_internal_list = type { ptr, ptr }
%union.pthread_cond_t = type { %struct.__pthread_cond_s }
%struct.__pthread_cond_s = type { %union.__atomic_wide_counter, %union.__atomic_wide_counter, [2 x i32], [2 x i32], i32, i32, [2 x i32] }
%union.__atomic_wide_counter = type { i64 }

@thread_gpu_id_run = dso_local global i64 0, align 8
@flag_energy_accounting_shutdown = internal global i8 0, align 1
@gpu_mutex = internal global %union.pthread_mutex_t zeroinitializer, align 8
@.str = private unnamed_addr constant [29 x i8] c"%s: pthread_mutex_lock(): %m\00", align 1
@__func__.fini = private unnamed_addr constant [5 x i8] c"fini\00", align 1
@gpu_cond = internal global %union.pthread_cond_t zeroinitializer, align 8
@.str.1 = private unnamed_addr constant [36 x i8] c"%s:%d %s: pthread_cond_signal(): %m\00", align 1
@.str.2 = private unnamed_addr constant [25 x i8] c"acct_gather_energy_gpu.c\00", align 1
@.str.3 = private unnamed_addr constant [31 x i8] c"%s: pthread_mutex_unlock(): %m\00", align 1
@.str.4 = private unnamed_addr constant [23 x i8] c"%s: pthread_join(): %m\00", align 1
@gpus = internal global ptr null, align 8
@start_current_energies = internal global ptr null, align 8
@saved_usable_gpus = internal global ptr null, align 8

; Function Attrs: nounwind uwtable
define dso_local i32 @fini() #0 {
  %1 = alloca i32, align 4
  %2 = alloca i32, align 4
  %3 = alloca i32, align 4
  %4 = alloca i32, align 4
  %5 = alloca i32, align 4
  %6 = call zeroext i1 @slurm_running_in_slurmd_stepd()
  br i1 %6, label %8, label %7

7:                                                ; preds = %0
  store i32 0, ptr %1, align 4
  br label %52

8:                                                ; preds = %0
  store i8 1, ptr @flag_energy_accounting_shutdown, align 1
  br label %9

9:                                                ; preds = %8
  call void @llvm.lifetime.start.p0(i64 4, ptr %2) #9
  %10 = call i32 @pthread_mutex_lock(ptr noundef @gpu_mutex) #9
  store i32 %10, ptr %2, align 4
  %11 = load i32, ptr %2, align 4
  %12 = icmp ne i32 %11, 0
  br i1 %12, label %13, label %16

13:                                               ; preds = %9
  %14 = load i32, ptr %2, align 4
  %15 = call ptr @__errno_location() #10
  store i32 %14, ptr %15, align 4
  call void (ptr, ...) @slurm_fatal_abort(ptr noundef @.str, ptr noundef @__func__.fini) #11
  unreachable

16:                                               ; preds = %9
  call void @llvm.lifetime.end.p0(i64 4, ptr %2) #9
  br label %17

17:                                               ; preds = %16
  br label %18

18:                                               ; preds = %17
  call void @llvm.lifetime.start.p0(i64 4, ptr %3) #9
  %19 = call i32 @pthread_cond_signal(ptr noundef @gpu_cond) #9
  store i32 %19, ptr %3, align 4
  %20 = load i32, ptr %3, align 4
  %21 = icmp ne i32 %20, 0
  br i1 %21, label %22, label %26

22:                                               ; preds = %18
  %23 = load i32, ptr %3, align 4
  %24 = call ptr @__errno_location() #10
  store i32 %23, ptr %24, align 4
  %25 = call i32 (ptr, ...) @slurm_error(ptr noundef @.str.1, ptr noundef @.str.2, i32 noundef 514, ptr noundef @__func__.fini)
  br label %26

26:                                               ; preds = %22, %18
  call void @llvm.lifetime.end.p0(i64 4, ptr %3) #9
  br label %27

27:                                               ; preds = %26
  br label %28

28:                                               ; preds = %27
  call void @llvm.lifetime.start.p0(i64 4, ptr %4) #9
  %29 = call i32 @pthread_mutex_unlock(ptr noundef @gpu_mutex) #9
  store i32 %29, ptr %4, align 4
  %30 = load i32, ptr %4, align 4
  %31 = icmp ne i32 %30, 0
  br i1 %31, label %32, label %35

32:                                               ; preds = %28
  %33 = load i32, ptr %4, align 4
  %34 = call ptr @__errno_location() #10
  store i32 %33, ptr %34, align 4
  call void (ptr, ...) @slurm_fatal_abort(ptr noundef @.str.3, ptr noundef @__func__.fini) #11
  unreachable

35:                                               ; preds = %28
  call void @llvm.lifetime.end.p0(i64 4, ptr %4) #9
  br label %36

36:                                               ; preds = %35
  br label %37

37:                                               ; preds = %36
  call void @llvm.lifetime.start.p0(i64 4, ptr %5) #9
  store i32 0, ptr %5, align 4
  %38 = load i64, ptr @thread_gpu_id_run, align 8
  %39 = icmp ne i64 %38, 0
  br i1 %39, label %40, label %43

40:                                               ; preds = %37
  %41 = load i64, ptr @thread_gpu_id_run, align 8
  %42 = call i32 @pthread_join(i64 noundef %41, ptr noundef null)
  store i32 %42, ptr %5, align 4
  store i64 0, ptr @thread_gpu_id_run, align 8
  br label %43

43:                                               ; preds = %40, %37
  %44 = load i32, ptr %5, align 4
  %45 = icmp ne i32 %44, 0
  br i1 %45, label %46, label %50

46:                                               ; preds = %43
  %47 = load i32, ptr %5, align 4
  %48 = call ptr @__errno_location() #10
  store i32 %47, ptr %48, align 4
  %49 = call i32 (ptr, ...) @slurm_error(ptr noundef @.str.4, ptr noundef @__func__.fini)
  br label %50

50:                                               ; preds = %46, %43
  call void @llvm.lifetime.end.p0(i64 4, ptr %5) #9
  br label %51

51:                                               ; preds = %50
  call void @slurm_xfree(ptr noundef @gpus)
  call void @slurm_xfree(ptr noundef @start_current_energies)
  store ptr null, ptr @saved_usable_gpus, align 8
  store i32 0, ptr %1, align 4
  br label %52

52:                                               ; preds = %51, %7
  %53 = load i32, ptr %1, align 4
  ret i32 %53
}