; Function Attrs: nounwind uwtable
define dso_local noundef i32 @fini() local_unnamed_addr #1 {
  %1 = tail call zeroext i1 @slurm_running_in_slurmd_stepd() #11
  br i1 %1, label %2, label %22

2:                                                ; preds = %0
  store i1 true, ptr @flag_energy_accounting_shutdown, align 1
  %3 = tail call i32 @pthread_mutex_lock(ptr noundef nonnull @gpu_mutex) #11
  %.not = icmp eq i32 %3, 0
  br i1 %.not, label %6, label %4

4:                                                ; preds = %2
  %5 = tail call ptr @__errno_location() #12
  store i32 %3, ptr %5, align 4
  tail call void (ptr, ...) @slurm_fatal_abort(ptr noundef nonnull @.str, ptr noundef nonnull @__func__.fini) #13
  unreachable

6:                                                ; preds = %2
  %7 = tail call i32 @pthread_cond_signal(ptr noundef nonnull @gpu_cond) #11
  %.not14 = icmp eq i32 %7, 0
  br i1 %.not14, label %11, label %8

8:                                                ; preds = %6
  %9 = tail call ptr @__errno_location() #12
  store i32 %7, ptr %9, align 4
  %10 = tail call i32 (ptr, ...) @slurm_error(ptr noundef nonnull @.str.1, ptr noundef nonnull @.str.2, i32 noundef 514, ptr noundef nonnull @__func__.fini) #11
  br label %11

11:                                               ; preds = %8, %6
  %12 = tail call i32 @pthread_mutex_unlock(ptr noundef nonnull @gpu_mutex) #11
  %.not15 = icmp eq i32 %12, 0
  br i1 %.not15, label %15, label %13

13:                                               ; preds = %11
  %14 = tail call ptr @__errno_location() #12
  store i32 %12, ptr %14, align 4
  tail call void (ptr, ...) @slurm_fatal_abort(ptr noundef nonnull @.str.3, ptr noundef nonnull @__func__.fini) #13
  unreachable

15:                                               ; preds = %11
  %16 = load i64, ptr @thread_gpu_id_run, align 8
  %.not16 = icmp eq i64 %16, 0
  br i1 %.not16, label %.thread, label %17

17:                                               ; preds = %15
  %18 = tail call i32 @pthread_join(i64 noundef %16, ptr noundef null) #11
  store i64 0, ptr @thread_gpu_id_run, align 8
  %.not17 = icmp eq i32 %18, 0
  br i1 %.not17, label %.thread, label %19

19:                                               ; preds = %17
  %20 = tail call ptr @__errno_location() #12
  store i32 %18, ptr %20, align 4
  %21 = tail call i32 (ptr, ...) @slurm_error(ptr noundef nonnull @.str.4, ptr noundef nonnull @__func__.fini) #11
  br label %.thread

.thread:                                          ; preds = %15, %19, %17
  tail call void @slurm_xfree(ptr noundef nonnull @gpus) #11
  tail call void @slurm_xfree(ptr noundef nonnull @start_current_energies) #11
  store ptr null, ptr @saved_usable_gpus, align 8
  br label %22

22:                                               ; preds = %0, %.thread
  ret i32 0
}